; ModuleID = '64/3444.c'
source_filename = "64/3444.c"
target datalayout = "e-m:e-p270:32:32-p271:32:32-p272:64:64-i64:64-f80:128-n8:16:32:64-S128"
target triple = "x86_64-pc-linux-gnu"

@.str = private unnamed_addr constant [4 x i8] c"%d\0A\00", align 1
@.str.1 = private unnamed_addr constant [7 x i8] c"%d%d%d\00", align 1
@.str.2 = private unnamed_addr constant [29 x i8] c"(%d,%d,%d)-(%d,%d,%d)=%.2lf\0A\00", align 1

; Function Attrs: noinline nounwind uwtable
define dso_local i32 @main() #0 {
  %1 = alloca i32, align 4
  %2 = alloca [100 x i32], align 16
  %3 = alloca [100 x i32], align 16
  %4 = alloca [100 x i32], align 16
  %5 = alloca i32, align 4
  %6 = alloca [100 x i32], align 16
  %7 = alloca i32, align 4
  %8 = alloca i32, align 4
  %9 = alloca i32, align 4
  %10 = alloca [100 x i32], align 16
  %11 = alloca [100 x i32], align 16
  %12 = alloca double, align 8
  %13 = alloca double, align 8
  %14 = alloca [100 x double], align 16
  %15 = alloca [100 x double], align 16
  store i32 0, i32* %1, align 4
  store i32 0, i32* %9, align 4
  %16 = call i32 (i8*, ...) @__isoc99_scanf(i8* getelementptr inbounds ([4 x i8], [4 x i8]* @.str, i64 0, i64 0), i32* %5)
  store i32 0, i32* %7, align 4
  br label %17

17:                                               ; preds = %32, %0
  %18 = load i32, i32* %7, align 4
  %19 = load i32, i32* %5, align 4
  %20 = icmp slt i32 %18, %19
  br i1 %20, label %21, label %35

21:                                               ; preds = %17
  %22 = load i32, i32* %7, align 4
  %23 = sext i32 %22 to i64
  %24 = getelementptr inbounds [100 x i32], [100 x i32]* %2, i64 0, i64 %23
  %25 = load i32, i32* %7, align 4
  %26 = sext i32 %25 to i64
  %27 = getelementptr inbounds [100 x i32], [100 x i32]* %3, i64 0, i64 %26
  %28 = load i32, i32* %7, align 4
  %29 = sext i32 %28 to i64
  %30 = getelementptr inbounds [100 x i32], [100 x i32]* %4, i64 0, i64 %29
  %31 = call i32 (i8*, ...) @__isoc99_scanf(i8* getelementptr inbounds ([7 x i8], [7 x i8]* @.str.1, i64 0, i64 0), i32* %24, i32* %27, i32* %30)
  br label %32

32:                                               ; preds = %21
  %33 = load i32, i32* %7, align 4
  %34 = add nsw i32 %33, 1
  store i32 %34, i32* %7, align 4
  br label %17

35:                                               ; preds = %17
  store i32 0, i32* %7, align 4
  br label %36

36:                                               ; preds = %133, %35
  %37 = load i32, i32* %7, align 4
  %38 = load i32, i32* %5, align 4
  %39 = icmp slt i32 %37, %38
  br i1 %39, label %40, label %136

40:                                               ; preds = %36
  %41 = load i32, i32* %7, align 4
  %42 = add nsw i32 %41, 1
  store i32 %42, i32* %8, align 4
  br label %43

43:                                               ; preds = %129, %40
  %44 = load i32, i32* %8, align 4
  %45 = load i32, i32* %5, align 4
  %46 = icmp slt i32 %44, %45
  br i1 %46, label %47, label %132

47:                                               ; preds = %43
  %48 = load i32, i32* %7, align 4
  %49 = sext i32 %48 to i64
  %50 = getelementptr inbounds [100 x i32], [100 x i32]* %2, i64 0, i64 %49
  %51 = load i32, i32* %50, align 4
  %52 = load i32, i32* %8, align 4
  %53 = sext i32 %52 to i64
  %54 = getelementptr inbounds [100 x i32], [100 x i32]* %2, i64 0, i64 %53
  %55 = load i32, i32* %54, align 4
  %56 = sub nsw i32 %51, %55
  %57 = load i32, i32* %7, align 4
  %58 = sext i32 %57 to i64
  %59 = getelementptr inbounds [100 x i32], [100 x i32]* %2, i64 0, i64 %58
  %60 = load i32, i32* %59, align 4
  %61 = load i32, i32* %8, align 4
  %62 = sext i32 %61 to i64
  %63 = getelementptr inbounds [100 x i32], [100 x i32]* %2, i64 0, i64 %62
  %64 = load i32, i32* %63, align 4
  %65 = sub nsw i32 %60, %64
  %66 = mul nsw i32 %56, %65
  %67 = load i32, i32* %7, align 4
  %68 = sext i32 %67 to i64
  %69 = getelementptr inbounds [100 x i32], [100 x i32]* %3, i64 0, i64 %68
  %70 = load i32, i32* %69, align 4
  %71 = load i32, i32* %8, align 4
  %72 = sext i32 %71 to i64
  %73 = getelementptr inbounds [100 x i32], [100 x i32]* %3, i64 0, i64 %72
  %74 = load i32, i32* %73, align 4
  %75 = sub nsw i32 %70, %74
  %76 = load i32, i32* %7, align 4
  %77 = sext i32 %76 to i64
  %78 = getelementptr inbounds [100 x i32], [100 x i32]* %3, i64 0, i64 %77
  %79 = load i32, i32* %78, align 4
  %80 = load i32, i32* %8, align 4
  %81 = sext i32 %80 to i64
  %82 = getelementptr inbounds [100 x i32], [100 x i32]* %3, i64 0, i64 %81
  %83 = load i32, i32* %82, align 4
  %84 = sub nsw i32 %79, %83
  %85 = mul nsw i32 %75, %84
  %86 = add nsw i32 %66, %85
  %87 = load i32, i32* %7, align 4
  %88 = sext i32 %87 to i64
  %89 = getelementptr inbounds [100 x i32], [100 x i32]* %4, i64 0, i64 %88
  %90 = load i32, i32* %89, align 4
  %91 = load i32, i32* %8, align 4
  %92 = sext i32 %91 to i64
  %93 = getelementptr inbounds [100 x i32], [100 x i32]* %4, i64 0, i64 %92
  %94 = load i32, i32* %93, align 4
  %95 = sub nsw i32 %90, %94
  %96 = load i32, i32* %7, align 4
  %97 = sext i32 %96 to i64
  %98 = getelementptr inbounds [100 x i32], [100 x i32]* %4, i64 0, i64 %97
  %99 = load i32, i32* %98, align 4
  %100 = load i32, i32* %8, align 4
  %101 = sext i32 %100 to i64
  %102 = getelementptr inbounds [100 x i32], [100 x i32]* %4, i64 0, i64 %101
  %103 = load i32, i32* %102, align 4
  %104 = sub nsw i32 %99, %103
  %105 = mul nsw i32 %95, %104
  %106 = add nsw i32 %86, %105
  %107 = sitofp i32 %106 to double
  %108 = load i32, i32* %9, align 4
  %109 = sext i32 %108 to i64
  %110 = getelementptr inbounds [100 x double], [100 x double]* %14, i64 0, i64 %109
  store double %107, double* %110, align 8
  %111 = load i32, i32* %9, align 4
  %112 = sext i32 %111 to i64
  %113 = getelementptr inbounds [100 x double], [100 x double]* %14, i64 0, i64 %112
  %114 = load double, double* %113, align 8
  %115 = call double @sqrt(double %114) #3
  %116 = load i32, i32* %9, align 4
  %117 = sext i32 %116 to i64
  %118 = getelementptr inbounds [100 x double], [100 x double]* %15, i64 0, i64 %117
  store double %115, double* %118, align 8
  %119 = load i32, i32* %7, align 4
  %120 = load i32, i32* %9, align 4
  %121 = sext i32 %120 to i64
  %122 = getelementptr inbounds [100 x i32], [100 x i32]* %10, i64 0, i64 %121
  store i32 %119, i32* %122, align 4
  %123 = load i32, i32* %8, align 4
  %124 = load i32, i32* %9, align 4
  %125 = sext i32 %124 to i64
  %126 = getelementptr inbounds [100 x i32], [100 x i32]* %11, i64 0, i64 %125
  store i32 %123, i32* %126, align 4
  %127 = load i32, i32* %9, align 4
  %128 = add nsw i32 %127, 1
  store i32 %128, i32* %9, align 4
  br label %129

129:                                              ; preds = %47
  %130 = load i32, i32* %8, align 4
  %131 = add nsw i32 %130, 1
  store i32 %131, i32* %8, align 4
  br label %43

132:                                              ; preds = %43
  br label %133

133:                                              ; preds = %132
  %134 = load i32, i32* %7, align 4
  %135 = add nsw i32 %134, 1
  store i32 %135, i32* %7, align 4
  br label %36

136:                                              ; preds = %36
  store i32 1, i32* %7, align 4
  br label %137

137:                                              ; preds = %220, %136
  %138 = load i32, i32* %7, align 4
  %139 = load i32, i32* %9, align 4
  %140 = icmp sle i32 %138, %139
  br i1 %140, label %141, label %223

141:                                              ; preds = %137
  store i32 0, i32* %8, align 4
  br label %142

142:                                              ; preds = %216, %141
  %143 = load i32, i32* %8, align 4
  %144 = load i32, i32* %9, align 4
  %145 = load i32, i32* %7, align 4
  %146 = sub nsw i32 %144, %145
  %147 = icmp slt i32 %143, %146
  br i1 %147, label %148, label %219

148:                                              ; preds = %142
  %149 = load i32, i32* %8, align 4
  %150 = sext i32 %149 to i64
  %151 = getelementptr inbounds [100 x double], [100 x double]* %15, i64 0, i64 %150
  %152 = load double, double* %151, align 8
  %153 = load i32, i32* %8, align 4
  %154 = add nsw i32 %153, 1
  %155 = sext i32 %154 to i64
  %156 = getelementptr inbounds [100 x double], [100 x double]* %15, i64 0, i64 %155
  %157 = load double, double* %156, align 8
  %158 = fcmp olt double %152, %157
  br i1 %158, label %159, label %215

159:                                              ; preds = %148
  %160 = load i32, i32* %8, align 4
  %161 = sext i32 %160 to i64
  %162 = getelementptr inbounds [100 x double], [100 x double]* %15, i64 0, i64 %161
  %163 = load double, double* %162, align 8
  store double %163, double* %13, align 8
  %164 = load i32, i32* %8, align 4
  %165 = add nsw i32 %164, 1
  %166 = sext i32 %165 to i64
  %167 = getelementptr inbounds [100 x double], [100 x double]* %15, i64 0, i64 %166
  %168 = load double, double* %167, align 8
  %169 = load i32, i32* %8, align 4
  %170 = sext i32 %169 to i64
  %171 = getelementptr inbounds [100 x double], [100 x double]* %15, i64 0, i64 %170
  store double %168, double* %171, align 8
  %172 = load double, double* %13, align 8
  %173 = load i32, i32* %8, align 4
  %174 = add nsw i32 %173, 1
  %175 = sext i32 %174 to i64
  %176 = getelementptr inbounds [100 x double], [100 x double]* %15, i64 0, i64 %175
  store double %172, double* %176, align 8
  %177 = load i32, i32* %8, align 4
  %178 = sext i32 %177 to i64
  %179 = getelementptr inbounds [100 x i32], [100 x i32]* %10, i64 0, i64 %178
  %180 = load i32, i32* %179, align 4
  %181 = sitofp i32 %180 to double
  store double %181, double* %13, align 8
  %182 = load i32, i32* %8, align 4
  %183 = add nsw i32 %182, 1
  %184 = sext i32 %183 to i64
  %185 = getelementptr inbounds [100 x i32], [100 x i32]* %10, i64 0, i64 %184
  %186 = load i32, i32* %185, align 4
  %187 = load i32, i32* %8, align 4
  %188 = sext i32 %187 to i64
  %189 = getelementptr inbounds [100 x i32], [100 x i32]* %10, i64 0, i64 %188
  store i32 %186, i32* %189, align 4
  %190 = load double, double* %13, align 8
  %191 = fptosi double %190 to i32
  %192 = load i32, i32* %8, align 4
  %193 = add nsw i32 %192, 1
  %194 = sext i32 %193 to i64
  %195 = getelementptr inbounds [100 x i32], [100 x i32]* %10, i64 0, i64 %194
  store i32 %191, i32* %195, align 4
  %196 = load i32, i32* %8, align 4
  %197 = sext i32 %196 to i64
  %198 = getelementptr inbounds [100 x i32], [100 x i32]* %11, i64 0, i64 %197
  %199 = load i32, i32* %198, align 4
  %200 = sitofp i32 %199 to double
  store double %200, double* %13, align 8
  %201 = load i32, i32* %8, align 4
  %202 = add nsw i32 %201, 1
  %203 = sext i32 %202 to i64
  %204 = getelementptr inbounds [100 x i32], [100 x i32]* %11, i64 0, i64 %203
  %205 = load i32, i32* %204, align 4
  %206 = load i32, i32* %8, align 4
  %207 = sext i32 %206 to i64
  %208 = getelementptr inbounds [100 x i32], [100 x i32]* %11, i64 0, i64 %207
  store i32 %205, i32* %208, align 4
  %209 = load double, double* %13, align 8
  %210 = fptosi double %209 to i32
  %211 = load i32, i32* %8, align 4
  %212 = add nsw i32 %211, 1
  %213 = sext i32 %212 to i64
  %214 = getelementptr inbounds [100 x i32], [100 x i32]* %11, i64 0, i64 %213
  store i32 %210, i32* %214, align 4
  br label %215

215:                                              ; preds = %159, %148
  br label %216

216:                                              ; preds = %215
  %217 = load i32, i32* %8, align 4
  %218 = add nsw i32 %217, 1
  store i32 %218, i32* %8, align 4
  br label %142

219:                                              ; preds = %142
  br label %220

220:                                              ; preds = %219
  %221 = load i32, i32* %7, align 4
  %222 = add nsw i32 %221, 1
  store i32 %222, i32* %7, align 4
  br label %137

223:                                              ; preds = %137
  store i32 0, i32* %7, align 4
  br label %224

224:                                              ; preds = %276, %223
  %225 = load i32, i32* %7, align 4
  %226 = load i32, i32* %9, align 4
  %227 = icmp slt i32 %225, %226
  br i1 %227, label %228, label %279

228:                                              ; preds = %224
  %229 = load i32, i32* %7, align 4
  %230 = sext i32 %229 to i64
  %231 = getelementptr inbounds [100 x i32], [100 x i32]* %10, i64 0, i64 %230
  %232 = load i32, i32* %231, align 4
  %233 = sext i32 %232 to i64
  %234 = getelementptr inbounds [100 x i32], [100 x i32]* %2, i64 0, i64 %233
  %235 = load i32, i32* %234, align 4
  %236 = load i32, i32* %7, align 4
  %237 = sext i32 %236 to i64
  %238 = getelementptr inbounds [100 x i32], [100 x i32]* %10, i64 0, i64 %237
  %239 = load i32, i32* %238, align 4
  %240 = sext i32 %239 to i64
  %241 = getelementptr inbounds [100 x i32], [100 x i32]* %3, i64 0, i64 %240
  %242 = load i32, i32* %241, align 4
  %243 = load i32, i32* %7, align 4
  %244 = sext i32 %243 to i64
  %245 = getelementptr inbounds [100 x i32], [100 x i32]* %10, i64 0, i64 %244
  %246 = load i32, i32* %245, align 4
  %247 = sext i32 %246 to i64
  %248 = getelementptr inbounds [100 x i32], [100 x i32]* %4, i64 0, i64 %247
  %249 = load i32, i32* %248, align 4
  %250 = load i32, i32* %7, align 4
  %251 = sext i32 %250 to i64
  %252 = getelementptr inbounds [100 x i32], [100 x i32]* %11, i64 0, i64 %251
  %253 = load i32, i32* %252, align 4
  %254 = sext i32 %253 to i64
  %255 = getelementptr inbounds [100 x i32], [100 x i32]* %2, i64 0, i64 %254
  %256 = load i32, i32* %255, align 4
  %257 = load i32, i32* %7, align 4
  %258 = sext i32 %257 to i64
  %259 = getelementptr inbounds [100 x i32], [100 x i32]* %11, i64 0, i64 %258
  %260 = load i32, i32* %259, align 4
  %261 = sext i32 %260 to i64
  %262 = getelementptr inbounds [100 x i32], [100 x i32]* %3, i64 0, i64 %261
  %263 = load i32, i32* %262, align 4
  %264 = load i32, i32* %7, align 4
  %265 = sext i32 %264 to i64
  %266 = getelementptr inbounds [100 x i32], [100 x i32]* %11, i64 0, i64 %265
  %267 = load i32, i32* %266, align 4
  %268 = sext i32 %267 to i64
  %269 = getelementptr inbounds [100 x i32], [100 x i32]* %4, i64 0, i64 %268
  %270 = load i32, i32* %269, align 4
  %271 = load i32, i32* %7, align 4
  %272 = sext i32 %271 to i64
  %273 = getelementptr inbounds [100 x double], [100 x double]* %15, i64 0, i64 %272
  %274 = load double, double* %273, align 8
  %275 = call i32 (i8*, ...) @printf(i8* getelementptr inbounds ([29 x i8], [29 x i8]* @.str.2, i64 0, i64 0), i32 %235, i32 %242, i32 %249, i32 %256, i32 %263, i32 %270, double %274)
  br label %276

276:                                              ; preds = %228
  %277 = load i32, i32* %7, align 4
  %278 = add nsw i32 %277, 1
  store i32 %278, i32* %7, align 4
  br label %224

279:                                              ; preds = %224
  %280 = load i32, i32* %1, align 4
  ret i32 %280
}

declare dso_local i32 @__isoc99_scanf(i8*, ...) #1

; Function Attrs: nounwind
declare dso_local double @sqrt(double) #2

declare dso_local i32 @printf(i8*, ...) #1


!llvm.module.flags = !{!0}
!llvm.ident = !{!1}

!0 = !{i32 1, !"wchar_size", i32 4}
!1 = !{!"clang version 10.0.0-4ubuntu1 "}
